target datalayout = "e-m:e-p270:32:32-p271:32:32-p272:64:64-i64:64-i128:128-f80:128-n8:16:32:64-S128"
target triple = "x86_64-pc-linux-gnu"

; Function Attrs: inlinehint nounwind uwtable
define internal ptr @ossl_check_GENERAL_NAMES_freefunc_type(ptr noundef %0) #3 {
  %2 = alloca ptr, align 8
  store ptr %0, ptr %2, align 8, !tbaa !89
  %3 = load ptr, ptr %2, align 8, !tbaa !89
  ret ptr %3
}

; Function Attrs: inlinehint nounwind uwtable
define internal ptr @ossl_check_GENERAL_NAMES_sk_type(ptr noundef %0) #3 {
  %2 = alloca ptr, align 8
  store ptr %0, ptr %2, align 8, !tbaa !77
  %3 = load ptr, ptr %2, align 8, !tbaa !77
  ret ptr %3
}

; Function Attrs: nounwind uwtable
define internal ptr @make_receipt_request(ptr noundef %0, i32 noundef %1, ptr noundef %2) #0 {
  %4 = alloca ptr, align 8
  %5 = alloca ptr, align 8
  %6 = alloca i32, align 4
  %7 = alloca ptr, align 8
  %8 = alloca ptr, align 8
  %9 = alloca ptr, align 8
  %10 = alloca ptr, align 8
  %11 = alloca i32, align 4
  store ptr %0, ptr %5, align 8, !tbaa !29
  store i32 %1, ptr %6, align 4, !tbaa !4
  store ptr %2, ptr %7, align 8, !tbaa !29
  call void @llvm.lifetime.start.p0(i64 8, ptr %8) #4
  store ptr null, ptr %8, align 8, !tbaa !77
  call void @llvm.lifetime.start.p0(i64 8, ptr %9) #4
  store ptr null, ptr %9, align 8, !tbaa !77
  call void @llvm.lifetime.start.p0(i64 8, ptr %10) #4
  %12 = load ptr, ptr %5, align 8, !tbaa !29
  %13 = call ptr @make_names_stack(ptr noundef %12)
  store ptr %13, ptr %8, align 8, !tbaa !77
  %14 = load ptr, ptr %8, align 8, !tbaa !77
  %15 = icmp eq ptr %14, null
  br i1 %15, label %16, label %17

16:                                               ; preds = %3
  br label %39

17:                                               ; preds = %3
  %18 = load ptr, ptr %7, align 8, !tbaa !29
  %19 = icmp ne ptr %18, null
  br i1 %19, label %20, label %27

20:                                               ; preds = %17
  %21 = load ptr, ptr %7, align 8, !tbaa !29
  %22 = call ptr @make_names_stack(ptr noundef %21)
  store ptr %22, ptr %9, align 8, !tbaa !77
  %23 = load ptr, ptr %9, align 8, !tbaa !77
  %24 = icmp eq ptr %23, null
  br i1 %24, label %25, label %26

25:                                               ; preds = %20
  br label %39

26:                                               ; preds = %20
  br label %28

27:                                               ; preds = %17
  store ptr null, ptr %9, align 8, !tbaa !77
  br label %28

28:                                               ; preds = %27, %26
  %29 = load i32, ptr %6, align 4, !tbaa !4
  %30 = load ptr, ptr %9, align 8, !tbaa !77
  %31 = load ptr, ptr %8, align 8, !tbaa !77
  %32 = call ptr @app_get0_libctx()
  %33 = call ptr @CMS_ReceiptRequest_create0_ex(ptr noundef null, i32 noundef -1, i32 noundef %29, ptr noundef %30, ptr noundef %31, ptr noundef %32)
  store ptr %33, ptr %10, align 8, !tbaa !19
  %34 = load ptr, ptr %10, align 8, !tbaa !19
  %35 = icmp eq ptr %34, null
  br i1 %35, label %36, label %37

36:                                               ; preds = %28
  br label %39

37:                                               ; preds = %28
  %38 = load ptr, ptr %10, align 8, !tbaa !19
  store ptr %38, ptr %4, align 8
  store i32 1, ptr %11, align 4
  br label %46

39:                                               ; preds = %36, %25, %16
  %40 = load ptr, ptr %8, align 8, !tbaa !77
  %41 = call ptr @ossl_check_GENERAL_NAMES_sk_type(ptr noundef %40)
  %42 = call ptr @ossl_check_GENERAL_NAMES_freefunc_type(ptr noundef @GENERAL_NAMES_free)
  call void @OPENSSL_sk_pop_free(ptr noundef %41, ptr noundef %42)
  %43 = load ptr, ptr %9, align 8, !tbaa !77
  %44 = call ptr @ossl_check_GENERAL_NAMES_sk_type(ptr noundef %43)
  %45 = call ptr @ossl_check_GENERAL_NAMES_freefunc_type(ptr noundef @GENERAL_NAMES_free)
  call void @OPENSSL_sk_pop_free(ptr noundef %44, ptr noundef %45)
  store ptr null, ptr %4, align 8
  store i32 1, ptr %11, align 4
  br label %46

46:                                               ; preds = %39, %37
  call void @llvm.lifetime.end.p0(i64 8, ptr %10) #4
  call void @llvm.lifetime.end.p0(i64 8, ptr %9) #4
  call void @llvm.lifetime.end.p0(i64 8, ptr %8) #4
  %47 = load ptr, ptr %4, align 8
  ret ptr %47
}