; Function Attrs: nounwind uwtable
define internal fastcc ptr @make_receipt_request(ptr noundef nonnull %0, i32 noundef %1, ptr noundef %2) unnamed_addr #0 {
  %4 = tail call fastcc ptr @make_names_stack(ptr noundef %0)
  %5 = icmp eq ptr %4, null
  br i1 %5, label %14, label %6

6:                                                ; preds = %3
  %.not = icmp eq ptr %2, null
  br i1 %.not, label %10, label %7

7:                                                ; preds = %6
  %8 = tail call fastcc ptr @make_names_stack(ptr noundef %2)
  %9 = icmp eq ptr %8, null
  br i1 %9, label %14, label %10

10:                                               ; preds = %6, %7
  %.1 = phi ptr [ %8, %7 ], [ null, %6 ]
  %11 = tail call ptr @app_get0_libctx() #3
  %12 = tail call ptr @CMS_ReceiptRequest_create0_ex(ptr noundef null, i32 noundef -1, i32 noundef %1, ptr noundef %.1, ptr noundef nonnull %4, ptr noundef %11) #3
  %13 = icmp eq ptr %12, null
  br i1 %13, label %14, label %15

14:                                               ; preds = %10, %7, %3
  %.012 = phi ptr [ null, %3 ], [ null, %7 ], [ %.1, %10 ]
  tail call void @OPENSSL_sk_pop_free(ptr noundef %4, ptr noundef nonnull @GENERAL_NAMES_free) #3
  tail call void @OPENSSL_sk_pop_free(ptr noundef %.012, ptr noundef nonnull @GENERAL_NAMES_free) #3
  br label %15

15:                                               ; preds = %10, %14
  %.0 = phi ptr [ null, %14 ], [ %12, %10 ]
  ret ptr %.0
}